target datalayout = "e-m:e-p270:32:32-p271:32:32-p272:64:64-i64:64-i128:128-f80:128-n8:16:32:64-S128"
target triple = "x86_64-unknown-linux-gnu"

%struct.CommitBlockJob = type { %struct.BlockJob, ptr, ptr, ptr, ptr, ptr, i32, i8, i8, ptr }
%struct.BlockJob = type { %struct.Job, i32, i64, %struct.RateLimit, ptr, %struct.Notifier, %struct.Notifier, %struct.Notifier, %struct.Notifier, %struct.Notifier, ptr }
%struct.Job = type { ptr, ptr, ptr, i8, i8, ptr, ptr, %struct.ProgressMeter, ptr, i32, i32, %struct.QEMUTimer, i32, i8, i8, i8, i8, i8, i8, i32, ptr, %struct.NotifierList, %struct.NotifierList, %struct.NotifierList, %struct.NotifierList, %struct.NotifierList, %struct.anon.0, ptr, %struct.anon.1 }
%struct.ProgressMeter = type { i64, i64, %struct.QemuMutex }
%struct.QemuMutex = type { %union.pthread_mutex_t, i8 }
%union.pthread_mutex_t = type { %struct.__pthread_mutex_s }
%struct.__pthread_mutex_s = type { i32, i32, i32, i32, i32, i16, i16, %struct.__pthread_internal_list }
%struct.__pthread_internal_list = type { ptr, ptr }
%struct.QEMUTimer = type { i64, ptr, ptr, ptr, ptr, i32, i32 }
%struct.NotifierList = type { %struct.anon }
%struct.anon = type { ptr }
%struct.anon.0 = type { ptr, ptr }
%struct.anon.1 = type { ptr, ptr }
%struct.RateLimit = type { %struct.QemuMutex, i64, i64, i64, i64, i64 }
%struct.Notifier = type { ptr, %struct.anon.2 }
%struct.anon.2 = type { ptr, ptr }

; Function Attrs: nounwind sspstrong uwtable
define internal i32 @commit_prepare(ptr noundef %job) #0 {
entry:
  %job.addr = alloca ptr, align 8
  %s = alloca ptr, align 8
  %__mptr = alloca ptr, align 8
  %tmp = alloca ptr, align 8
  store ptr %job, ptr %job.addr, align 8
  %0 = load ptr, ptr %job.addr, align 8
  store ptr %0, ptr %__mptr, align 8
  %1 = load ptr, ptr %__mptr, align 8
  %add.ptr = getelementptr i8, ptr %1, i64 0
  store ptr %add.ptr, ptr %tmp, align 8
  %2 = load ptr, ptr %tmp, align 8
  store ptr %2, ptr %s, align 8
  call void @bdrv_graph_rdlock_main_loop()
  %3 = load ptr, ptr %s, align 8
  %commit_top_bs = getelementptr inbounds %struct.CommitBlockJob, ptr %3, i32 0, i32 1
  %4 = load ptr, ptr %commit_top_bs, align 8
  %5 = load ptr, ptr %s, align 8
  %base_bs = getelementptr inbounds %struct.CommitBlockJob, ptr %5, i32 0, i32 4
  %6 = load ptr, ptr %base_bs, align 8
  call void @bdrv_unfreeze_backing_chain(ptr noundef %4, ptr noundef %6)
  %7 = load ptr, ptr %s, align 8
  %chain_frozen = getelementptr inbounds %struct.CommitBlockJob, ptr %7, i32 0, i32 8
  store i8 0, ptr %chain_frozen, align 1
  call void @bdrv_graph_rdunlock_main_loop()
  %8 = load ptr, ptr %s, align 8
  %base = getelementptr inbounds %struct.CommitBlockJob, ptr %8, i32 0, i32 3
  %9 = load ptr, ptr %base, align 8
  call void @blk_unref(ptr noundef %9)
  %10 = load ptr, ptr %s, align 8
  %base1 = getelementptr inbounds %struct.CommitBlockJob, ptr %10, i32 0, i32 3
  store ptr null, ptr %base1, align 8
  %11 = load ptr, ptr %s, align 8
  %commit_top_bs2 = getelementptr inbounds %struct.CommitBlockJob, ptr %11, i32 0, i32 1
  %12 = load ptr, ptr %commit_top_bs2, align 8
  %13 = load ptr, ptr %s, align 8
  %base_bs3 = getelementptr inbounds %struct.CommitBlockJob, ptr %13, i32 0, i32 4
  %14 = load ptr, ptr %base_bs3, align 8
  %15 = load ptr, ptr %s, align 8
  %backing_file_str = getelementptr inbounds %struct.CommitBlockJob, ptr %15, i32 0, i32 9
  %16 = load ptr, ptr %backing_file_str, align 8
  %call = call i32 @bdrv_drop_intermediate(ptr noundef %12, ptr noundef %14, ptr noundef %16)
  ret i32 %call
}