; Function Attrs: nounwind sspstrong uwtable
define internal i32 @commit_prepare(ptr noundef captures(none) initializes((565, 566)) %job) #0 {
entry:
  tail call void @bdrv_graph_rdlock_main_loop() #6
  %commit_top_bs = getelementptr inbounds nuw i8, ptr %job, i64 520
  %0 = load ptr, ptr %commit_top_bs, align 8
  %base_bs = getelementptr inbounds nuw i8, ptr %job, i64 544
  %1 = load ptr, ptr %base_bs, align 8
  tail call void @bdrv_unfreeze_backing_chain(ptr noundef %0, ptr noundef %1) #6
  %chain_frozen = getelementptr inbounds nuw i8, ptr %job, i64 565
  store i8 0, ptr %chain_frozen, align 1
  tail call void @bdrv_graph_rdunlock_main_loop() #6
  %base = getelementptr inbounds nuw i8, ptr %job, i64 536
  %2 = load ptr, ptr %base, align 8
  tail call void @blk_unref(ptr noundef %2) #6
  store ptr null, ptr %base, align 8
  %3 = load ptr, ptr %commit_top_bs, align 8
  %4 = load ptr, ptr %base_bs, align 8
  %backing_file_str = getelementptr inbounds nuw i8, ptr %job, i64 568
  %5 = load ptr, ptr %backing_file_str, align 8
  %call = tail call i32 @bdrv_drop_intermediate(ptr noundef %3, ptr noundef %4, ptr noundef %5) #6
  ret i32 %call
}